target datalayout = "e-m:e-p270:32:32-p271:32:32-p272:64:64-i64:64-i128:128-f80:128-n8:16:32:64-S128"
target triple = "x86_64-pc-linux-gnu"

@.str.18 = private unnamed_addr constant [9 x i8] c"filename\00", align 1
@.str.35 = private unnamed_addr constant [5 x i8] c"name\00", align 1

; Function Attrs: nounwind uwtable
define ptr @messageGetFilename(ptr noundef %0) #0 {
  %2 = alloca ptr, align 8
  %3 = alloca ptr, align 8
  %4 = alloca ptr, align 8
  store ptr %0, ptr %3, align 8
  %5 = load ptr, ptr %3, align 8
  %6 = call ptr @messageFindArgument(ptr noundef %5, ptr noundef @.str.18)
  store ptr %6, ptr %4, align 8
  %7 = load ptr, ptr %4, align 8
  %8 = icmp ne ptr %7, null
  br i1 %8, label %9, label %11

9:                                                ; preds = %1
  %10 = load ptr, ptr %4, align 8
  store ptr %10, ptr %2, align 8
  br label %14

11:                                               ; preds = %1
  %12 = load ptr, ptr %3, align 8
  %13 = call ptr @messageFindArgument(ptr noundef %12, ptr noundef @.str.35)
  store ptr %13, ptr %2, align 8
  br label %14

14:                                               ; preds = %11, %9
  %15 = load ptr, ptr %2, align 8
  ret ptr %15
}