; Function Attrs: nounwind uwtable
define ptr @messageGetFilename(ptr noundef %0) local_unnamed_addr #2 {
  %2 = tail call ptr @messageFindArgument(ptr noundef %0, ptr noundef nonnull @.str.18)
  %.not = icmp eq ptr %2, null
  br i1 %.not, label %3, label %5

3:                                                ; preds = %1
  %4 = tail call ptr @messageFindArgument(ptr noundef %0, ptr noundef nonnull @.str.35)
  br label %5

5:                                                ; preds = %1, %3
  %.0 = phi ptr [ %4, %3 ], [ %2, %1 ]
  ret ptr %.0
}